target datalayout = "e-m:e-p270:32:32-p271:32:32-p272:64:64-i64:64-i128:128-f80:128-n8:16:32:64-S128"
target triple = "x86_64-pc-linux-gnu"

%struct.ParseState = type { ptr, ptr, i32, i32, ptr, ptr, ptr, ptr, ptr, ptr, i8, ptr, ptr, ptr, ptr, ptr, ptr, i8, ptr, i32, i32, ptr, ptr, i8, i8, ptr, i8, i8, i8, i8, i8, ptr, ptr, ptr, ptr, ptr, ptr }
%struct.ParamRef = type { i32, i32, i32 }

@.str.41 = private unnamed_addr constant [13 x i8] c"parse_expr.c\00", align 1
@.str.50 = private unnamed_addr constant [26 x i8] c"there is no parameter $%d\00", align 1
@__func__.transformParamRef = private unnamed_addr constant [18 x i8] c"transformParamRef\00", align 1

; Function Attrs: nounwind uwtable
define internal ptr @transformParamRef(ptr noundef %0, ptr noundef %1) #0 {
  %3 = alloca ptr, align 8
  %4 = alloca ptr, align 8
  %5 = alloca ptr, align 8
  store ptr %0, ptr %3, align 8
  store ptr %1, ptr %4, align 8
  call void @llvm.lifetime.start.p0(i64 8, ptr %5) #8
  %6 = load ptr, ptr %3, align 8
  %7 = getelementptr inbounds nuw %struct.ParseState, ptr %6, i32 0, i32 34
  %8 = load ptr, ptr %7, align 8
  %9 = icmp ne ptr %8, null
  br i1 %9, label %10, label %17

10:                                               ; preds = %2
  %11 = load ptr, ptr %3, align 8
  %12 = getelementptr inbounds nuw %struct.ParseState, ptr %11, i32 0, i32 34
  %13 = load ptr, ptr %12, align 8
  %14 = load ptr, ptr %3, align 8
  %15 = load ptr, ptr %4, align 8
  %16 = call ptr %13(ptr noundef %14, ptr noundef %15)
  store ptr %16, ptr %5, align 8
  br label %18

17:                                               ; preds = %2
  store ptr null, ptr %5, align 8
  br label %18

18:                                               ; preds = %17, %10
  %19 = load ptr, ptr %5, align 8
  %20 = icmp eq ptr %19, null
  br i1 %20, label %21, label %41

21:                                               ; preds = %18
  br label %22

22:                                               ; preds = %21
  br i1 true, label %23, label %25

23:                                               ; preds = %22
  %24 = call zeroext i1 @errstart_cold(i32 noundef 21, ptr noundef null) #9
  br i1 %24, label %27, label %38

25:                                               ; preds = %22
  %26 = call zeroext i1 @errstart(i32 noundef 21, ptr noundef null)
  br i1 %26, label %27, label %38

27:                                               ; preds = %25, %23
  %28 = call i32 @errcode(i32 noundef 33685636)
  %29 = load ptr, ptr %4, align 8
  %30 = getelementptr inbounds nuw %struct.ParamRef, ptr %29, i32 0, i32 1
  %31 = load i32, ptr %30, align 4
  %32 = call i32 (ptr, ...) @errmsg(ptr noundef @.str.50, i32 noundef %31)
  %33 = load ptr, ptr %3, align 8
  %34 = load ptr, ptr %4, align 8
  %35 = getelementptr inbounds nuw %struct.ParamRef, ptr %34, i32 0, i32 2
  %36 = load i32, ptr %35, align 4
  %37 = call i32 @parser_errposition(ptr noundef %33, i32 noundef %36)
  call void @errfinish(ptr noundef @.str.41, i32 noundef 901, ptr noundef @__func__.transformParamRef)
  br label %38

38:                                               ; preds = %27, %25, %23
  unreachable

39:                                               ; No predecessors!
  br label %40

40:                                               ; preds = %39
  br label %41

41:                                               ; preds = %40, %18
  %42 = load ptr, ptr %5, align 8
  call void @llvm.lifetime.end.p0(i64 8, ptr %5) #8
  ret ptr %42
}