; Function Attrs: nounwind uwtable
define internal fastcc nonnull ptr @transformParamRef(ptr noundef %0, ptr noundef nonnull %1) unnamed_addr #0 {
  %3 = getelementptr inbounds nuw i8, ptr %0, i64 216
  %4 = load ptr, ptr %3, align 8
  %.not = icmp eq ptr %4, null
  br i1 %.not, label %.thread, label %5

5:                                                ; preds = %2
  %6 = tail call ptr %4(ptr noundef nonnull %0, ptr noundef nonnull %1) #9
  %7 = icmp eq ptr %6, null
  br i1 %7, label %.thread, label %16

.thread:                                          ; preds = %2, %5
  %8 = tail call zeroext i1 @errstart_cold(i32 noundef 21, ptr noundef null) #10
  tail call void @llvm.assume(i1 %8)
  %9 = tail call i32 @errcode(i32 noundef 33685636) #9
  %10 = getelementptr inbounds nuw i8, ptr %1, i64 4
  %11 = load i32, ptr %10, align 4
  %12 = tail call i32 (ptr, ...) @errmsg(ptr noundef nonnull @.str.50, i32 noundef %11) #9
  %13 = getelementptr inbounds nuw i8, ptr %1, i64 8
  %14 = load i32, ptr %13, align 4
  %15 = tail call i32 @parser_errposition(ptr noundef nonnull %0, i32 noundef %14) #9
  tail call void @errfinish(ptr noundef nonnull @.str.41, i32 noundef 901, ptr noundef nonnull @__func__.transformParamRef) #9
  unreachable

16:                                               ; preds = %5
  ret ptr %6
}